target datalayout = "e-m:e-p270:32:32-p271:32:32-p272:64:64-i64:64-i128:128-f80:128-n8:16:32:64-S128"
target triple = "x86_64-pc-linux-gnu"

%struct._pdo_stmt_t = type { ptr, ptr, [6 x i8], i16, ptr, ptr, ptr, ptr, i32, i32, %union.anon, ptr, ptr, ptr, i64, ptr, ptr, ptr, %struct._zend_object }
%union.anon = type { %struct.anon.0 }
%struct.anon.0 = type { %struct._zend_fcall_info_cache }
%struct._zend_fcall_info_cache = type { ptr, ptr, ptr, ptr, ptr }
%struct._zend_object = type { %struct._zend_refcounted_h, i32, i32, ptr, ptr, ptr, [1 x %struct._zval_struct] }
%struct._zend_refcounted_h = type { i32, %union.anon.1 }
%union.anon.1 = type { i32 }
%struct._zval_struct = type { %union._zend_value, %union.anon.3, %union.anon.6 }
%union._zend_value = type { i64 }
%union.anon.3 = type { i32 }
%union.anon.6 = type { i32 }
%struct.pdo_sqlite_stmt = type { ptr, ptr, i8 }

; Function Attrs: nounwind uwtable
define internal i32 @pdo_sqlite_stmt_get_attribute(ptr noundef %0, i64 noundef %1, ptr noundef %2) #0 {
  %4 = alloca i32, align 4
  %5 = alloca ptr, align 8
  %6 = alloca i64, align 8
  %7 = alloca ptr, align 8
  %8 = alloca ptr, align 8
  %9 = alloca i32, align 4
  store ptr %0, ptr %5, align 8, !tbaa !4
  store i64 %1, ptr %6, align 8, !tbaa !39
  store ptr %2, ptr %7, align 8, !tbaa !46
  call void @llvm.lifetime.start.p0(i64 8, ptr %8) #8
  %10 = load ptr, ptr %5, align 8, !tbaa !4
  %11 = getelementptr inbounds nuw %struct._pdo_stmt_t, ptr %10, i32 0, i32 1
  %12 = load ptr, ptr %11, align 8, !tbaa !9
  store ptr %12, ptr %8, align 8, !tbaa !25
  %13 = load i64, ptr %6, align 8, !tbaa !39
  switch i64 %13, label %32 [
    i64 1001, label %14
  ]

14:                                               ; preds = %3
  br label %15

15:                                               ; preds = %14
  %16 = load ptr, ptr %7, align 8, !tbaa !46
  %17 = getelementptr inbounds nuw %struct._zval_struct, ptr %16, i32 0, i32 1
  store i32 2, ptr %17, align 8, !tbaa !48
  br label %18

18:                                               ; preds = %15
  br label %19

19:                                               ; preds = %18
  %20 = load ptr, ptr %8, align 8, !tbaa !25
  %21 = getelementptr inbounds nuw %struct.pdo_sqlite_stmt, ptr %20, i32 0, i32 1
  %22 = load ptr, ptr %21, align 8, !tbaa !26
  %23 = call i32 @sqlite3_stmt_readonly(ptr noundef %22)
  %24 = icmp ne i32 %23, 0
  br i1 %24, label %25, label %31

25:                                               ; preds = %19
  br label %26

26:                                               ; preds = %25
  %27 = load ptr, ptr %7, align 8, !tbaa !46
  %28 = getelementptr inbounds nuw %struct._zval_struct, ptr %27, i32 0, i32 1
  store i32 3, ptr %28, align 8, !tbaa !48
  br label %29

29:                                               ; preds = %26
  br label %30

30:                                               ; preds = %29
  br label %31

31:                                               ; preds = %30, %19
  br label %33

32:                                               ; preds = %3
  store i32 0, ptr %4, align 4
  store i32 1, ptr %9, align 4
  br label %34

33:                                               ; preds = %31
  store i32 1, ptr %4, align 4
  store i32 1, ptr %9, align 4
  br label %34

34:                                               ; preds = %33, %32
  call void @llvm.lifetime.end.p0(i64 8, ptr %8) #8
  %35 = load i32, ptr %4, align 4
  ret i32 %35
}