; Function Attrs: nounwind uwtable
define internal range(i32 0, 2) i32 @pdo_sqlite_stmt_get_attribute(ptr noundef readonly captures(none) %0, i64 noundef %1, ptr noundef writeonly captures(none) %2) #0 {
  %cond = icmp eq i64 %1, 1001
  br i1 %cond, label %4, label %12

4:                                                ; preds = %3
  %5 = getelementptr inbounds nuw i8, ptr %0, i64 8
  %6 = load ptr, ptr %5, align 8, !tbaa !4
  %7 = getelementptr inbounds nuw i8, ptr %2, i64 8
  store i32 2, ptr %7, align 8, !tbaa !36
  %8 = getelementptr inbounds nuw i8, ptr %6, i64 8
  %9 = load ptr, ptr %8, align 8, !tbaa !23
  %10 = tail call i32 @sqlite3_stmt_readonly(ptr noundef %9) #6
  %.not = icmp eq i32 %10, 0
  br i1 %.not, label %12, label %11

11:                                               ; preds = %4
  store i32 3, ptr %7, align 8, !tbaa !36
  br label %12

12:                                               ; preds = %11, %4, %3
  %.0 = phi i32 [ 0, %3 ], [ 1, %4 ], [ 1, %11 ]
  ret i32 %.0
}